target datalayout = "e-m:e-p270:32:32-p271:32:32-p272:64:64-i64:64-i128:128-f80:128-n8:16:32:64-S128"
target triple = "x86_64-pc-linux-gnu"

%struct.translation_ctx_st = type { ptr, i32, i32, ptr, i32, i32, ptr, i64, ptr, ptr, [50 x i8], ptr, ptr, i64 }
%struct.translation_st = type { i32, i32, i32, i32, i32, ptr, ptr, ptr, i32, ptr }
%struct.ossl_param_st = type { ptr, i32, ptr, i64, i64 }
%struct.evp_pkey_ctx_st = type { i32, ptr, ptr, ptr, ptr, %union.anon, %struct.anon.4, ptr, ptr, ptr, i32, i32, ptr, ptr, ptr, ptr, ptr, i8, ptr }
%union.anon = type { %struct.anon.0 }
%struct.anon.0 = type { ptr, ptr }
%struct.anon.4 = type { ptr, ptr, i64, i8 }

@.str = private unnamed_addr constant [46 x i8] c"../openssl/crypto/evp/ctrl_params_translate.c\00", align 1

; Function Attrs: nounwind uwtable
define internal i32 @cleanup_translation_ctx(i32 noundef %0, ptr noundef %1, ptr noundef %2) #0 {
  %4 = alloca i32, align 4
  %5 = alloca ptr, align 8
  %6 = alloca ptr, align 8
  store i32 %0, ptr %4, align 4, !tbaa !8
  store ptr %1, ptr %5, align 8, !tbaa !11
  store ptr %2, ptr %6, align 8, !tbaa !43
  %7 = load ptr, ptr %6, align 8, !tbaa !43
  %8 = getelementptr inbounds nuw %struct.translation_ctx_st, ptr %7, i32 0, i32 11
  %9 = load ptr, ptr %8, align 8, !tbaa !53
  %10 = icmp ne ptr %9, null
  br i1 %10, label %11, label %15

11:                                               ; preds = %3
  %12 = load ptr, ptr %6, align 8, !tbaa !43
  %13 = getelementptr inbounds nuw %struct.translation_ctx_st, ptr %12, i32 0, i32 11
  %14 = load ptr, ptr %13, align 8, !tbaa !53
  call void @CRYPTO_free(ptr noundef %14, ptr noundef @.str, i32 noundef 713)
  br label %15

15:                                               ; preds = %11, %3
  %16 = load ptr, ptr %6, align 8, !tbaa !43
  %17 = getelementptr inbounds nuw %struct.translation_ctx_st, ptr %16, i32 0, i32 11
  store ptr null, ptr %17, align 8, !tbaa !53
  ret i32 1
}

; Function Attrs: nounwind uwtable
define internal ptr @lookup_evp_pkey_ctx_translation(ptr noundef %0) #0 {
  %2 = alloca ptr, align 8
  store ptr %0, ptr %2, align 8, !tbaa !11
  %3 = load ptr, ptr %2, align 8, !tbaa !11
  %4 = call ptr @lookup_translation(ptr noundef %3, ptr noundef @evp_pkey_ctx_translations, i64 noundef 86)
  ret ptr %4
}

; Function Attrs: nounwind uwtable
define i32 @evp_pkey_ctx_ctrl_str_to_param(ptr noundef %0, ptr noundef %1, ptr noundef %2) #0 {
  %4 = alloca ptr, align 8
  %5 = alloca ptr, align 8
  %6 = alloca ptr, align 8
  %7 = alloca %struct.translation_ctx_st, align 8
  %8 = alloca %struct.translation_st, align 8
  %9 = alloca ptr, align 8
  %10 = alloca [2 x %struct.ossl_param_st], align 16
  %11 = alloca i32, align 4
  %12 = alloca i32, align 4
  %13 = alloca i32, align 4
  %14 = alloca ptr, align 8
  store ptr %0, ptr %4, align 8, !tbaa !3
  store ptr %1, ptr %5, align 8, !tbaa !50
  store ptr %2, ptr %6, align 8, !tbaa !50
  call void @llvm.lifetime.start.p0(i64 144, ptr %7) #9
  call void @llvm.memset.p0.i64(ptr align 8 %7, i8 0, i64 144, i1 false)
  call void @llvm.lifetime.start.p0(i64 64, ptr %8) #9
  call void @llvm.memset.p0.i64(ptr align 8 %8, i8 0, i64 64, i1 false)
  call void @llvm.lifetime.start.p0(i64 8, ptr %9) #9
  store ptr null, ptr %9, align 8, !tbaa !11
  call void @llvm.lifetime.start.p0(i64 80, ptr %10) #9
  call void @llvm.memset.p0.i64(ptr align 16 %10, i8 0, i64 80, i1 false)
  call void @llvm.lifetime.start.p0(i64 4, ptr %11) #9
  %15 = load ptr, ptr %4, align 8, !tbaa !3
  %16 = getelementptr inbounds nuw %struct.evp_pkey_ctx_st, ptr %15, i32 0, i32 11
  %17 = load i32, ptr %16, align 4, !tbaa !13
  store i32 %17, ptr %11, align 4, !tbaa !8
  call void @llvm.lifetime.start.p0(i64 4, ptr %12) #9
  %18 = load ptr, ptr %4, align 8, !tbaa !3
  %19 = getelementptr inbounds nuw %struct.evp_pkey_ctx_st, ptr %18, i32 0, i32 0
  %20 = load i32, ptr %19, align 8, !tbaa !45
  %21 = icmp eq i32 %20, 0
  br i1 %21, label %22, label %23

22:                                               ; preds = %3
  br label %27

23:                                               ; preds = %3
  %24 = load ptr, ptr %4, align 8, !tbaa !3
  %25 = getelementptr inbounds nuw %struct.evp_pkey_ctx_st, ptr %24, i32 0, i32 0
  %26 = load i32, ptr %25, align 8, !tbaa !45
  br label %27

27:                                               ; preds = %23, %22
  %28 = phi i32 [ -1, %22 ], [ %26, %23 ]
  store i32 %28, ptr %12, align 4, !tbaa !8
  call void @llvm.lifetime.start.p0(i64 4, ptr %13) #9
  call void @llvm.lifetime.start.p0(i64 8, ptr %14) #9
  store ptr @default_fixup_args, ptr %14, align 8, !tbaa !10
  %29 = getelementptr inbounds nuw %struct.translation_st, ptr %8, i32 0, i32 0
  store i32 2, ptr %29, align 8, !tbaa !34
  %30 = load i32, ptr %11, align 4, !tbaa !8
  %31 = getelementptr inbounds nuw %struct.translation_st, ptr %8, i32 0, i32 2
  store i32 %30, ptr %31, align 8, !tbaa !27
  %32 = getelementptr inbounds nuw %struct.translation_st, ptr %8, i32 0, i32 1
  store i32 %30, ptr %32, align 4, !tbaa !28
  %33 = load i32, ptr %12, align 4, !tbaa !8
  %34 = getelementptr inbounds nuw %struct.translation_st, ptr %8, i32 0, i32 3
  store i32 %33, ptr %34, align 4, !tbaa !29
  %35 = load ptr, ptr %5, align 8, !tbaa !50
  %36 = getelementptr inbounds nuw %struct.translation_st, ptr %8, i32 0, i32 5
  store ptr %35, ptr %36, align 8, !tbaa !63
  %37 = load ptr, ptr %5, align 8, !tbaa !50
  %38 = getelementptr inbounds nuw %struct.translation_st, ptr %8, i32 0, i32 6
  store ptr %37, ptr %38, align 8, !tbaa !64
  %39 = call ptr @lookup_evp_pkey_ctx_translation(ptr noundef %8)
  store ptr %39, ptr %9, align 8, !tbaa !11
  %40 = load ptr, ptr %9, align 8, !tbaa !11
  %41 = icmp ne ptr %40, null
  br i1 %41, label %42, label %61

42:                                               ; preds = %27
  %43 = load ptr, ptr %9, align 8, !tbaa !11
  %44 = getelementptr inbounds nuw %struct.translation_st, ptr %43, i32 0, i32 9
  %45 = load ptr, ptr %44, align 8, !tbaa !33
  %46 = icmp ne ptr %45, null
  br i1 %46, label %47, label %51

47:                                               ; preds = %42
  %48 = load ptr, ptr %9, align 8, !tbaa !11
  %49 = getelementptr inbounds nuw %struct.translation_st, ptr %48, i32 0, i32 9
  %50 = load ptr, ptr %49, align 8, !tbaa !33
  store ptr %50, ptr %14, align 8, !tbaa !10
  br label %51

51:                                               ; preds = %47, %42
  %52 = load ptr, ptr %9, align 8, !tbaa !11
  %53 = getelementptr inbounds nuw %struct.translation_st, ptr %52, i32 0, i32 0
  %54 = load i32, ptr %53, align 8, !tbaa !34
  %55 = getelementptr inbounds nuw %struct.translation_ctx_st, ptr %7, i32 0, i32 1
  store i32 %54, ptr %55, align 8, !tbaa !35
  %56 = getelementptr inbounds nuw %struct.translation_st, ptr %8, i32 0, i32 6
  %57 = load ptr, ptr %56, align 8, !tbaa !64
  %58 = icmp ne ptr %57, null
  %59 = zext i1 %58 to i32
  %60 = getelementptr inbounds nuw %struct.translation_ctx_st, ptr %7, i32 0, i32 4
  store i32 %59, ptr %60, align 8, !tbaa !58
  br label %63

61:                                               ; preds = %27
  %62 = getelementptr inbounds nuw %struct.translation_ctx_st, ptr %7, i32 0, i32 1
  store i32 2, ptr %62, align 8, !tbaa !35
  br label %63

63:                                               ; preds = %61, %51
  %64 = load ptr, ptr %5, align 8, !tbaa !50
  %65 = getelementptr inbounds nuw %struct.translation_ctx_st, ptr %7, i32 0, i32 3
  store ptr %64, ptr %65, align 8, !tbaa !56
  %66 = load ptr, ptr %6, align 8, !tbaa !50
  %67 = call i64 @strlen(ptr noundef %66) #10
  %68 = trunc i64 %67 to i32
  %69 = getelementptr inbounds nuw %struct.translation_ctx_st, ptr %7, i32 0, i32 5
  store i32 %68, ptr %69, align 4, !tbaa !39
  %70 = load ptr, ptr %6, align 8, !tbaa !50
  %71 = getelementptr inbounds nuw %struct.translation_ctx_st, ptr %7, i32 0, i32 6
  store ptr %70, ptr %71, align 8, !tbaa !40
  %72 = load ptr, ptr %4, align 8, !tbaa !3
  %73 = getelementptr inbounds nuw %struct.translation_ctx_st, ptr %7, i32 0, i32 0
  store ptr %72, ptr %73, align 8, !tbaa !41
  %74 = getelementptr inbounds [2 x %struct.ossl_param_st], ptr %10, i64 0, i64 0
  %75 = getelementptr inbounds nuw %struct.translation_ctx_st, ptr %7, i32 0, i32 8
  store ptr %74, ptr %75, align 8, !tbaa !42
  %76 = load ptr, ptr %14, align 8, !tbaa !10
  %77 = load ptr, ptr %9, align 8, !tbaa !11
  %78 = call i32 %76(i32 noundef 4, ptr noundef %77, ptr noundef %7)
  store i32 %78, ptr %13, align 4, !tbaa !8
  %79 = load i32, ptr %13, align 4, !tbaa !8
  %80 = icmp sgt i32 %79, 0
  br i1 %80, label %81, label %91

81:                                               ; preds = %63
  %82 = getelementptr inbounds nuw %struct.translation_ctx_st, ptr %7, i32 0, i32 1
  %83 = load i32, ptr %82, align 8, !tbaa !35
  switch i32 %83, label %84 [
    i32 1, label %90
    i32 2, label %85
  ]

84:                                               ; preds = %81
  br label %90

85:                                               ; preds = %81
  %86 = load ptr, ptr %4, align 8, !tbaa !3
  %87 = getelementptr inbounds nuw %struct.translation_ctx_st, ptr %7, i32 0, i32 8
  %88 = load ptr, ptr %87, align 8, !tbaa !42
  %89 = call i32 @evp_pkey_ctx_set_params_strict(ptr noundef %86, ptr noundef %88)
  store i32 %89, ptr %13, align 4, !tbaa !8
  br label %90

90:                                               ; preds = %85, %81, %84
  br label %91

91:                                               ; preds = %90, %63
  %92 = load i32, ptr %13, align 4, !tbaa !8
  %93 = icmp sgt i32 %92, 0
  br i1 %93, label %94, label %98

94:                                               ; preds = %91
  %95 = load ptr, ptr %14, align 8, !tbaa !10
  %96 = load ptr, ptr %9, align 8, !tbaa !11
  %97 = call i32 %95(i32 noundef 5, ptr noundef %96, ptr noundef %7)
  store i32 %97, ptr %13, align 4, !tbaa !8
  br label %98

98:                                               ; preds = %94, %91
  %99 = load ptr, ptr %9, align 8, !tbaa !11
  %100 = call i32 @cleanup_translation_ctx(i32 noundef 6, ptr noundef %99, ptr noundef %7)
  %101 = load i32, ptr %13, align 4, !tbaa !8
  call void @llvm.lifetime.end.p0(i64 8, ptr %14) #9
  call void @llvm.lifetime.end.p0(i64 4, ptr %13) #9
  call void @llvm.lifetime.end.p0(i64 4, ptr %12) #9
  call void @llvm.lifetime.end.p0(i64 4, ptr %11) #9
  call void @llvm.lifetime.end.p0(i64 80, ptr %10) #9
  call void @llvm.lifetime.end.p0(i64 8, ptr %9) #9
  call void @llvm.lifetime.end.p0(i64 64, ptr %8) #9
  call void @llvm.lifetime.end.p0(i64 144, ptr %7) #9
  ret i32 %101
}