; Function Attrs: nounwind uwtable
define i32 @evp_pkey_ctx_ctrl_str_to_param(ptr noundef %0, ptr noundef %1, ptr noundef %2) local_unnamed_addr #0 {
  %4 = alloca %struct.translation_ctx_st, align 8
  %5 = alloca %struct.translation_st, align 8
  %6 = alloca [2 x %struct.ossl_param_st], align 16
  call void @llvm.lifetime.start.p0(i64 144, ptr nonnull %4) #8
  call void @llvm.memset.p0.i64(ptr noundef nonnull align 8 dereferenceable(144) %4, i8 0, i64 144, i1 false)
  call void @llvm.lifetime.start.p0(i64 64, ptr nonnull %5) #8
  %7 = getelementptr inbounds nuw i8, ptr %5, i64 16
  call void @llvm.memset.p0.i64(ptr noundef nonnull align 8 dereferenceable(64) %7, i8 0, i64 48, i1 false)
  call void @llvm.lifetime.start.p0(i64 80, ptr nonnull %6) #8
  call void @llvm.memset.p0.i64(ptr noundef nonnull align 16 dereferenceable(80) %6, i8 0, i64 80, i1 false)
  %8 = getelementptr inbounds nuw i8, ptr %0, i64 116
  %9 = load i32, ptr %8, align 4, !tbaa !3
  %10 = load i32, ptr %0, align 8, !tbaa !39
  %11 = icmp eq i32 %10, 0
  %spec.select = select i1 %11, i32 -1, i32 %10
  store i32 2, ptr %5, align 8, !tbaa !28
  %12 = getelementptr inbounds nuw i8, ptr %5, i64 8
  store i32 %9, ptr %12, align 8, !tbaa !21
  %13 = getelementptr inbounds nuw i8, ptr %5, i64 4
  store i32 %9, ptr %13, align 4, !tbaa !22
  %14 = getelementptr inbounds nuw i8, ptr %5, i64 12
  store i32 %spec.select, ptr %14, align 4, !tbaa !23
  %15 = getelementptr inbounds nuw i8, ptr %5, i64 24
  store ptr %1, ptr %15, align 8, !tbaa !58
  %16 = getelementptr inbounds nuw i8, ptr %5, i64 32
  store ptr %1, ptr %16, align 8, !tbaa !59
  %17 = call fastcc ptr @lookup_translation(ptr noundef nonnull %5, ptr noundef nonnull @evp_pkey_ctx_translations, i64 noundef 86)
  %.not = icmp eq ptr %17, null
  br i1 %.not, label %26, label %18

18:                                               ; preds = %3
  %19 = getelementptr inbounds nuw i8, ptr %17, i64 56
  %20 = load ptr, ptr %19, align 8, !tbaa !27
  %.not29 = icmp eq ptr %20, null
  %spec.select30 = select i1 %.not29, ptr @default_fixup_args, ptr %20
  %21 = load i32, ptr %17, align 8, !tbaa !28
  %22 = load ptr, ptr %16, align 8, !tbaa !59
  %23 = icmp ne ptr %22, null
  %24 = zext i1 %23 to i32
  %25 = getelementptr inbounds nuw i8, ptr %4, i64 24
  store i32 %24, ptr %25, align 8, !tbaa !52
  br label %26

26:                                               ; preds = %3, %18
  %.sink = phi i32 [ %21, %18 ], [ 2, %3 ]
  %.1 = phi ptr [ %spec.select30, %18 ], [ @default_fixup_args, %3 ]
  %27 = getelementptr inbounds nuw i8, ptr %4, i64 8
  store i32 %.sink, ptr %27, align 8, !tbaa !29
  %28 = getelementptr inbounds nuw i8, ptr %4, i64 16
  store ptr %1, ptr %28, align 8, !tbaa !51
  %29 = tail call i64 @strlen(ptr noundef nonnull dereferenceable(1) %2) #9
  %30 = trunc i64 %29 to i32
  %31 = getelementptr inbounds nuw i8, ptr %4, i64 28
  store i32 %30, ptr %31, align 4, !tbaa !34
  %32 = getelementptr inbounds nuw i8, ptr %4, i64 32
  store ptr %2, ptr %32, align 8, !tbaa !35
  store ptr %0, ptr %4, align 8, !tbaa !36
  %33 = getelementptr inbounds nuw i8, ptr %4, i64 48
  store ptr %6, ptr %33, align 8, !tbaa !37
  %34 = call i32 %.1(i32 noundef 4, ptr noundef %17, ptr noundef nonnull %4) #8
  %35 = icmp sgt i32 %34, 0
  %36 = load i32, ptr %27, align 8
  %cond = icmp eq i32 %36, 2
  %or.cond = select i1 %35, i1 %cond, i1 false
  br i1 %or.cond, label %37, label %40

37:                                               ; preds = %26
  %38 = load ptr, ptr %33, align 8, !tbaa !37
  %39 = call i32 @evp_pkey_ctx_set_params_strict(ptr noundef nonnull %0, ptr noundef %38) #8
  br label %40

40:                                               ; preds = %37, %26
  %.024 = phi i32 [ %39, %37 ], [ %34, %26 ]
  %41 = icmp sgt i32 %.024, 0
  br i1 %41, label %42, label %44

42:                                               ; preds = %40
  %43 = call i32 %.1(i32 noundef 5, ptr noundef %17, ptr noundef nonnull %4) #8
  br label %44

44:                                               ; preds = %42, %40
  %.125 = phi i32 [ %43, %42 ], [ %.024, %40 ]
  %45 = getelementptr inbounds nuw i8, ptr %4, i64 120
  %46 = load ptr, ptr %45, align 8, !tbaa !38
  %.not.i = icmp eq ptr %46, null
  br i1 %.not.i, label %cleanup_translation_ctx.exit, label %47

47:                                               ; preds = %44
  call void @CRYPTO_free(ptr noundef nonnull %46, ptr noundef nonnull @.str, i32 noundef 713) #8
  br label %cleanup_translation_ctx.exit

cleanup_translation_ctx.exit:                     ; preds = %44, %47
  call void @llvm.lifetime.end.p0(i64 80, ptr nonnull %6) #8
  call void @llvm.lifetime.end.p0(i64 64, ptr nonnull %5) #8
  call void @llvm.lifetime.end.p0(i64 144, ptr nonnull %4) #8
  ret i32 %.125
}